cexp_management.initialconditions
CustomParticles
p1
(I2
tRp2
(dp3
S'massUnit'
p4
S'MSun'
p5
sS'storageFilename'
p6
S'sun-earth.hdf5'
p7
sS'name'
p8
S'CustomParticles'
p9
sS'particlesPath'
p10
S'/home/hape/gpunit/Code/demo-experiment/0/objects/'
p11
sS'radiusUnit'
p12
S'km'
p13
sS'velUnit'
p14
S'km/s'
p15
sS'positionUnit'
p16
S'AU'
p17
sS'numParticles'
p18
I2
sb.