cdiagnostics.builtin.gldiagnostic
OpenGLDiagnostic
p1
(S'OpenGLDiagnostic'
p2
I512
I512
F9.9999999999999995e-07
tRp3
(dp4
S'name'
p5
g2
sS'convert_nbody'
p6
NsS'height'
p7
I512
sS'width'
p8
I512
sS'scaleFactor'
p9
F9.9999999999999995e-07
sb.